target datalayout = "e-m:e-p270:32:32-p271:32:32-p272:64:64-i64:64-i128:128-f80:128-n8:16:32:64-S128"
target triple = "x86_64-pc-linux-gnu"

%struct._e_prefs = type { ptr, i32, %struct.color_t, %struct.color_t, %struct.color_t, %struct.color_t, %struct.color_t, %struct.color_t, %struct.color_t, i32, i32, ptr, %struct.color_t, %struct.color_t, i32, %struct.color_t, %struct.color_t, i32, %struct.color_t, %struct.color_t, %struct.color_t, %struct.color_t, ptr, ptr, i32, i32, i32, i32, i32, i32, ptr, i32, ptr, i32, i32, i32, ptr, ptr, ptr, i32, i32, i32, i32, i32, i32, i32, i32, i32, i32, ptr, i32, i32, i32, i32, i32, ptr, ptr, ptr, ptr, ptr, ptr, ptr, ptr, ptr, i32, i32, i32, i32, i32, i32, i32, i32, ptr, i32, i32, i32, i32, i32, i32, i32, i32, i32, i32, i32, i32, i32, i32, ptr, i32, i32, i32, i32, i32, i32, i32, i32, i32, i32, i32, i32, i32, i32, i32, i32, i32, i32, i32, i32, i32, i32, i32, i32, i32, i32, i32 }
%struct.color_t = type { i16, i16, i16 }
%class.RtpAudioStream = type { %class.QObject, %struct._rtpstream_id, %struct._rtpstream_info, i8, %class.QList, ptr, ptr, ptr, double, double, double, double, i64, %class.AudioRouting, i8, i32, i32, i32, %class.QSet, ptr, %class.QMap, %class.QList.0, %class.QList.4, %class.QList.4, %class.QList.4, %class.QList.4, i16, i16, i32, i32, i32, double, ptr }
%class.QObject = type { ptr, %class.QScopedPointer }
%class.QScopedPointer = type { ptr }
%struct._rtpstream_id = type { %struct._address, i16, %struct._address, i16, i32 }
%struct._address = type { i32, i32, ptr, ptr }
%struct._rtpstream_info = type { %struct._rtpstream_id, i8, ptr, [256 x ptr], ptr, i32, i32, i32, i32, i32, i32, ptr, ptr, %struct.nstime_t, %struct.nstime_t, %struct.nstime_t, i16, i32, i32, %struct._tap_rtp_stat_t, i32, ptr }
%struct.nstime_t = type { i64, i32 }
%struct._tap_rtp_stat_t = type { i32, i32, i16, i64, i64, double, [300 x %struct._bw_history_item], i16, i16, i32, i32, double, double, double, double, double, double, double, double, double, double, double, double, double, double, double, double, double, double, double, i32, i16, i16, i32, i32, i32, i32, i16, i32, i32, i32 }
%struct._bw_history_item = type { double, i32 }
%class.QList = type { %struct.QArrayDataPointer }
%struct.QArrayDataPointer = type { ptr, ptr, i64 }
%class.AudioRouting = type { i8, i32 }
%class.QSet = type { %class.QHash }
%class.QHash = type { ptr }
%class.QMap = type { %"class.QtPrivate::QExplicitlySharedDataPointerV2" }
%"class.QtPrivate::QExplicitlySharedDataPointerV2" = type { ptr }
%class.QList.0 = type { %struct.QArrayDataPointer.3 }
%struct.QArrayDataPointer.3 = type { ptr, ptr, i64 }
%class.QList.4 = type { %struct.QArrayDataPointer.7 }
%struct.QArrayDataPointer.7 = type { ptr, ptr, i64 }

@_ZTV14RtpAudioStream = external unnamed_addr constant { [14 x ptr] }, align 8
@prefs = external global %struct._e_prefs, align 8
@_ZTIi = external constant ptr

; Function Attrs: mustprogress nounwind uwtable
define linkonce_odr void @_ZN17QArrayDataPointerIdEC2Ev(ptr noundef nonnull align 8 dereferenceable(24) %0) unnamed_addr #2 comdat align 2 {
  %2 = alloca ptr, align 8
  store ptr %0, ptr %2, align 8
  %3 = load ptr, ptr %2, align 8
  %4 = getelementptr inbounds %struct.QArrayDataPointer.7, ptr %3, i32 0, i32 0
  store ptr null, ptr %4, align 8
  %5 = getelementptr inbounds %struct.QArrayDataPointer.7, ptr %3, i32 0, i32 1
  store ptr null, ptr %5, align 8
  %6 = getelementptr inbounds %struct.QArrayDataPointer.7, ptr %3, i32 0, i32 2
  store i64 0, ptr %6, align 8
  ret void
}

; Function Attrs: mustprogress nounwind uwtable
define linkonce_odr void @_ZN17QArrayDataPointerIsEC2Ev(ptr noundef nonnull align 8 dereferenceable(24) %0) unnamed_addr #2 comdat align 2 {
  %2 = alloca ptr, align 8
  store ptr %0, ptr %2, align 8
  %3 = load ptr, ptr %2, align 8
  %4 = getelementptr inbounds %struct.QArrayDataPointer.3, ptr %3, i32 0, i32 0
  store ptr null, ptr %4, align 8
  %5 = getelementptr inbounds %struct.QArrayDataPointer.3, ptr %3, i32 0, i32 1
  store ptr null, ptr %5, align 8
  %6 = getelementptr inbounds %struct.QArrayDataPointer.3, ptr %3, i32 0, i32 2
  store i64 0, ptr %6, align 8
  ret void
}

; Function Attrs: mustprogress nounwind uwtable
define linkonce_odr void @_ZN9QtPrivate30QExplicitlySharedDataPointerV2I8QMapDataISt3mapIdjSt4lessIdESaISt4pairIKdjEEEEEC2Ev(ptr noundef nonnull align 8 dereferenceable(8) %0) unnamed_addr #2 comdat align 2 {
  %2 = alloca ptr, align 8
  store ptr %0, ptr %2, align 8
  %3 = load ptr, ptr %2, align 8
  %4 = getelementptr inbounds %"class.QtPrivate::QExplicitlySharedDataPointerV2", ptr %3, i32 0, i32 0
  store ptr null, ptr %4, align 8
  ret void
}

; Function Attrs: mustprogress nounwind uwtable
define linkonce_odr void @_ZN5QHashI7QString15QHashDummyValueEC2Ev(ptr noundef nonnull align 8 dereferenceable(8) %0) unnamed_addr #2 comdat align 2 {
  %2 = alloca ptr, align 8
  store ptr %0, ptr %2, align 8
  %3 = load ptr, ptr %2, align 8
  %4 = getelementptr inbounds %class.QHash, ptr %3, i32 0, i32 0
  store ptr null, ptr %4, align 8
  ret void
}

; Function Attrs: mustprogress nounwind uwtable
define linkonce_odr void @_ZN17QArrayDataPointerIP11_rtp_packetEC2Ev(ptr noundef nonnull align 8 dereferenceable(24) %0) unnamed_addr #2 comdat align 2 {
  %2 = alloca ptr, align 8
  store ptr %0, ptr %2, align 8
  %3 = load ptr, ptr %2, align 8
  %4 = getelementptr inbounds %struct.QArrayDataPointer, ptr %3, i32 0, i32 0
  store ptr null, ptr %4, align 8
  %5 = getelementptr inbounds %struct.QArrayDataPointer, ptr %3, i32 0, i32 1
  store ptr null, ptr %5, align 8
  %6 = getelementptr inbounds %struct.QArrayDataPointer, ptr %3, i32 0, i32 2
  store i64 0, ptr %6, align 8
  ret void
}

; Function Attrs: mustprogress nounwind uwtable
define linkonce_odr void @_ZN4QSetI7QStringED2Ev(ptr noundef nonnull align 8 dereferenceable(8) %0) unnamed_addr #2 comdat align 2 {
  %2 = alloca ptr, align 8
  store ptr %0, ptr %2, align 8
  %3 = load ptr, ptr %2, align 8
  %4 = getelementptr inbounds %class.QSet, ptr %3, i32 0, i32 0
  call void @_ZN5QHashI7QString15QHashDummyValueED2Ev(ptr noundef nonnull align 8 dereferenceable(8) %4) #20
  ret void
}

; Function Attrs: mustprogress nounwind uwtable
define linkonce_odr void @_ZN5QListIdEC2Ev(ptr noundef nonnull align 8 dereferenceable(24) %0) unnamed_addr #2 comdat align 2 {
  %2 = alloca ptr, align 8
  store ptr %0, ptr %2, align 8
  %3 = load ptr, ptr %2, align 8
  %4 = getelementptr inbounds %class.QList.4, ptr %3, i32 0, i32 0
  call void @_ZN17QArrayDataPointerIdEC2Ev(ptr noundef nonnull align 8 dereferenceable(24) %4) #20
  ret void
}

; Function Attrs: mustprogress nounwind uwtable
define linkonce_odr void @_ZN5QListIsEC2Ev(ptr noundef nonnull align 8 dereferenceable(24) %0) unnamed_addr #2 comdat align 2 {
  %2 = alloca ptr, align 8
  store ptr %0, ptr %2, align 8
  %3 = load ptr, ptr %2, align 8
  %4 = getelementptr inbounds %class.QList.0, ptr %3, i32 0, i32 0
  call void @_ZN17QArrayDataPointerIsEC2Ev(ptr noundef nonnull align 8 dereferenceable(24) %4) #20
  ret void
}

; Function Attrs: mustprogress nounwind uwtable
define linkonce_odr void @_ZN4QMapIdjEC2Ev(ptr noundef nonnull align 8 dereferenceable(8) %0) unnamed_addr #2 comdat align 2 {
  %2 = alloca ptr, align 8
  store ptr %0, ptr %2, align 8
  %3 = load ptr, ptr %2, align 8
  %4 = getelementptr inbounds %class.QMap, ptr %3, i32 0, i32 0
  call void @_ZN9QtPrivate30QExplicitlySharedDataPointerV2I8QMapDataISt3mapIdjSt4lessIdESaISt4pairIKdjEEEEEC2Ev(ptr noundef nonnull align 8 dereferenceable(8) %4) #20
  ret void
}

; Function Attrs: mustprogress nounwind uwtable
define linkonce_odr void @_ZN4QSetI7QStringEC2Ev(ptr noundef nonnull align 8 dereferenceable(8) %0) unnamed_addr #2 comdat align 2 {
  %2 = alloca ptr, align 8
  store ptr %0, ptr %2, align 8
  %3 = load ptr, ptr %2, align 8
  %4 = getelementptr inbounds %class.QSet, ptr %3, i32 0, i32 0
  call void @_ZN5QHashI7QString15QHashDummyValueEC2Ev(ptr noundef nonnull align 8 dereferenceable(8) %4) #20
  ret void
}

; Function Attrs: mustprogress nounwind uwtable
define linkonce_odr void @_ZN5QListIP11_rtp_packetEC2Ev(ptr noundef nonnull align 8 dereferenceable(24) %0) unnamed_addr #2 comdat align 2 {
  %2 = alloca ptr, align 8
  store ptr %0, ptr %2, align 8
  %3 = load ptr, ptr %2, align 8
  %4 = getelementptr inbounds %class.QList, ptr %3, i32 0, i32 0
  call void @_ZN17QArrayDataPointerIP11_rtp_packetEC2Ev(ptr noundef nonnull align 8 dereferenceable(24) %4) #20
  ret void
}

; Function Attrs: mustprogress uwtable
define void @_ZN14RtpAudioStreamC2EP7QObjectP13_rtpstream_idb(ptr noundef nonnull align 8 dereferenceable(7680) %0, ptr noundef %1, ptr noundef %2, i1 noundef zeroext %3) unnamed_addr #0 align 2 personality ptr @__gxx_personality_v0 {
  %5 = alloca ptr, align 8
  %6 = alloca ptr, align 8
  %7 = alloca ptr, align 8
  %8 = alloca i8, align 1
  %9 = alloca ptr, align 8
  %10 = alloca i32, align 4
  store ptr %0, ptr %5, align 8
  store ptr %1, ptr %6, align 8
  store ptr %2, ptr %7, align 8
  %11 = zext i1 %3 to i8
  store i8 %11, ptr %8, align 1
  %12 = load ptr, ptr %5, align 8
  %13 = load ptr, ptr %6, align 8
  call void @_ZN7QObjectC2EPS_(ptr noundef nonnull align 8 dereferenceable(16) %12, ptr noundef %13)
  store ptr getelementptr inbounds ({ [14 x ptr] }, ptr @_ZTV14RtpAudioStream, i32 0, i32 0, i32 2), ptr %12, align 8
  %14 = getelementptr inbounds %class.RtpAudioStream, ptr %12, i32 0, i32 3
  store i8 1, ptr %14, align 8
  %15 = getelementptr inbounds %class.RtpAudioStream, ptr %12, i32 0, i32 4
  call void @_ZN5QListIP11_rtp_packetEC2Ev(ptr noundef nonnull align 8 dereferenceable(24) %15) #20
  %16 = getelementptr inbounds %class.RtpAudioStream, ptr %12, i32 0, i32 7
  %17 = invoke ptr @rtp_decoder_hash_table_new()
          to label %18 unwind label %63

18:                                               ; preds = %4
  store ptr %17, ptr %16, align 8
  %19 = getelementptr inbounds %class.RtpAudioStream, ptr %12, i32 0, i32 8
  store double 0.000000e+00, ptr %19, align 8
  %20 = getelementptr inbounds %class.RtpAudioStream, ptr %12, i32 0, i32 9
  store double 0.000000e+00, ptr %20, align 8
  %21 = getelementptr inbounds %class.RtpAudioStream, ptr %12, i32 0, i32 10
  store double 0.000000e+00, ptr %21, align 8
  %22 = getelementptr inbounds %class.RtpAudioStream, ptr %12, i32 0, i32 11
  store double 0.000000e+00, ptr %22, align 8
  %23 = getelementptr inbounds %class.RtpAudioStream, ptr %12, i32 0, i32 14
  %24 = load i8, ptr %8, align 1
  %25 = trunc i8 %24 to i1
  %26 = zext i1 %25 to i8
  store i8 %26, ptr %23, align 8
  %27 = getelementptr inbounds %class.RtpAudioStream, ptr %12, i32 0, i32 15
  store i32 0, ptr %27, align 4
  %28 = getelementptr inbounds %class.RtpAudioStream, ptr %12, i32 0, i32 16
  store i32 0, ptr %28, align 8
  %29 = getelementptr inbounds %class.RtpAudioStream, ptr %12, i32 0, i32 17
  store i32 0, ptr %29, align 4
  %30 = getelementptr inbounds %class.RtpAudioStream, ptr %12, i32 0, i32 18
  call void @_ZN4QSetI7QStringEC2Ev(ptr noundef nonnull align 8 dereferenceable(8) %30) #20
  %31 = getelementptr inbounds %class.RtpAudioStream, ptr %12, i32 0, i32 20
  call void @_ZN4QMapIdjEC2Ev(ptr noundef nonnull align 8 dereferenceable(8) %31) #20
  %32 = getelementptr inbounds %class.RtpAudioStream, ptr %12, i32 0, i32 21
  call void @_ZN5QListIsEC2Ev(ptr noundef nonnull align 8 dereferenceable(24) %32) #20
  %33 = getelementptr inbounds %class.RtpAudioStream, ptr %12, i32 0, i32 22
  call void @_ZN5QListIdEC2Ev(ptr noundef nonnull align 8 dereferenceable(24) %33) #20
  %34 = getelementptr inbounds %class.RtpAudioStream, ptr %12, i32 0, i32 23
  call void @_ZN5QListIdEC2Ev(ptr noundef nonnull align 8 dereferenceable(24) %34) #20
  %35 = getelementptr inbounds %class.RtpAudioStream, ptr %12, i32 0, i32 24
  call void @_ZN5QListIdEC2Ev(ptr noundef nonnull align 8 dereferenceable(24) %35) #20
  %36 = getelementptr inbounds %class.RtpAudioStream, ptr %12, i32 0, i32 25
  call void @_ZN5QListIdEC2Ev(ptr noundef nonnull align 8 dereferenceable(24) %36) #20
  %37 = getelementptr inbounds %class.RtpAudioStream, ptr %12, i32 0, i32 26
  store i16 1, ptr %37, align 8
  %38 = getelementptr inbounds %class.RtpAudioStream, ptr %12, i32 0, i32 27
  store i16 1, ptr %38, align 2
  %39 = getelementptr inbounds %class.RtpAudioStream, ptr %12, i32 0, i32 28
  store i32 0, ptr %39, align 4
  %40 = getelementptr inbounds %class.RtpAudioStream, ptr %12, i32 0, i32 29
  store i32 50, ptr %40, align 8
  %41 = getelementptr inbounds %class.RtpAudioStream, ptr %12, i32 0, i32 30
  store i32 0, ptr %41, align 4
  %42 = getelementptr inbounds %class.RtpAudioStream, ptr %12, i32 0, i32 31
  store double 0.000000e+00, ptr %42, align 8
  %43 = getelementptr inbounds %class.RtpAudioStream, ptr %12, i32 0, i32 32
  store ptr null, ptr %43, align 8
  %44 = load ptr, ptr %7, align 8
  %45 = getelementptr inbounds %class.RtpAudioStream, ptr %12, i32 0, i32 1
  invoke void @rtpstream_id_copy(ptr noundef %44, ptr noundef %45)
          to label %46 unwind label %67

46:                                               ; preds = %18
  %47 = getelementptr inbounds %class.RtpAudioStream, ptr %12, i32 0, i32 2
  call void @llvm.memset.p0.i64(ptr align 8 %47, i8 0, i64 7304, i1 false)
  %48 = getelementptr inbounds %class.RtpAudioStream, ptr %12, i32 0, i32 1
  %49 = getelementptr inbounds %class.RtpAudioStream, ptr %12, i32 0, i32 2
  %50 = getelementptr inbounds %struct._rtpstream_info, ptr %49, i32 0, i32 0
  invoke void @rtpstream_id_copy(ptr noundef %48, ptr noundef %50)
          to label %51 unwind label %67

51:                                               ; preds = %46
  %52 = invoke ptr @speex_resampler_init(i32 noundef 1, i32 noundef 1000, i32 noundef 1000, i32 noundef 0, ptr noundef null)
          to label %53 unwind label %67

53:                                               ; preds = %51
  %54 = getelementptr inbounds %class.RtpAudioStream, ptr %12, i32 0, i32 19
  store ptr %52, ptr %54, align 8
  %55 = invoke noalias noundef nonnull ptr @_Znwm(i64 noundef 96) #21
          to label %56 unwind label %71

56:                                               ; preds = %53
  %57 = load i32, ptr getelementptr inbounds (%struct._e_prefs, ptr @prefs, i32 0, i32 102), align 8
  %58 = icmp ne i32 %57, 0
  %59 = load i32, ptr getelementptr inbounds (%struct._e_prefs, ptr @prefs, i32 0, i32 103), align 4
  %60 = icmp ne i32 %59, 0
  invoke void @_ZN12RtpAudioFileC1Ebb(ptr noundef nonnull align 8 dereferenceable(96) %55, i1 noundef zeroext %58, i1 noundef zeroext %60)
          to label %61 unwind label %75

61:                                               ; preds = %56
  %62 = getelementptr inbounds %class.RtpAudioStream, ptr %12, i32 0, i32 5
  store ptr %55, ptr %62, align 8
  br label %95

63:                                               ; preds = %4
  %64 = landingpad { ptr, i32 }
          cleanup
  %65 = extractvalue { ptr, i32 } %64, 0
  store ptr %65, ptr %9, align 8
  %66 = extractvalue { ptr, i32 } %64, 1
  store i32 %66, ptr %10, align 4
  br label %97

67:                                               ; preds = %51, %46, %18
  %68 = landingpad { ptr, i32 }
          cleanup
  %69 = extractvalue { ptr, i32 } %68, 0
  store ptr %69, ptr %9, align 8
  %70 = extractvalue { ptr, i32 } %68, 1
  store i32 %70, ptr %10, align 4
  br label %96

71:                                               ; preds = %53
  %72 = landingpad { ptr, i32 }
          catch ptr null
  %73 = extractvalue { ptr, i32 } %72, 0
  store ptr %73, ptr %9, align 8
  %74 = extractvalue { ptr, i32 } %72, 1
  store i32 %74, ptr %10, align 4
  br label %79

75:                                               ; preds = %56
  %76 = landingpad { ptr, i32 }
          catch ptr null
  %77 = extractvalue { ptr, i32 } %76, 0
  store ptr %77, ptr %9, align 8
  %78 = extractvalue { ptr, i32 } %76, 1
  store i32 %78, ptr %10, align 4
  call void @_ZdlPv(ptr noundef %55) #22
  br label %79

79:                                               ; preds = %75, %71
  %80 = load ptr, ptr %9, align 8
  %81 = call ptr @__cxa_begin_catch(ptr %80) #20
  %82 = getelementptr inbounds %class.RtpAudioStream, ptr %12, i32 0, i32 19
  %83 = load ptr, ptr %82, align 8
  invoke void @speex_resampler_destroy(ptr noundef %83)
          to label %84 unwind label %90

84:                                               ; preds = %79
  %85 = getelementptr inbounds %class.RtpAudioStream, ptr %12, i32 0, i32 2
  invoke void @rtpstream_info_free_data(ptr noundef %85)
          to label %86 unwind label %90

86:                                               ; preds = %84
  %87 = getelementptr inbounds %class.RtpAudioStream, ptr %12, i32 0, i32 1
  invoke void @rtpstream_id_free(ptr noundef %87)
          to label %88 unwind label %90

88:                                               ; preds = %86
  %89 = call ptr @__cxa_allocate_exception(i64 4) #20
  store i32 -1, ptr %89, align 16
  invoke void @__cxa_throw(ptr %89, ptr @_ZTIi, ptr null) #23
          to label %106 unwind label %90

90:                                               ; preds = %88, %86, %84, %79
  %91 = landingpad { ptr, i32 }
          cleanup
  %92 = extractvalue { ptr, i32 } %91, 0
  store ptr %92, ptr %9, align 8
  %93 = extractvalue { ptr, i32 } %91, 1
  store i32 %93, ptr %10, align 4
  invoke void @__cxa_end_catch()
          to label %94 unwind label %103

94:                                               ; preds = %90
  br label %96

95:                                               ; preds = %61
  ret void

96:                                               ; preds = %94, %67
  call void @_ZN5QListIdED2Ev(ptr noundef nonnull align 8 dereferenceable(24) %36) #20
  call void @_ZN5QListIdED2Ev(ptr noundef nonnull align 8 dereferenceable(24) %35) #20
  call void @_ZN5QListIdED2Ev(ptr noundef nonnull align 8 dereferenceable(24) %34) #20
  call void @_ZN5QListIdED2Ev(ptr noundef nonnull align 8 dereferenceable(24) %33) #20
  call void @_ZN5QListIsED2Ev(ptr noundef nonnull align 8 dereferenceable(24) %32) #20
  call void @_ZN4QMapIdjED2Ev(ptr noundef nonnull align 8 dereferenceable(8) %31) #20
  call void @_ZN4QSetI7QStringED2Ev(ptr noundef nonnull align 8 dereferenceable(8) %30) #20
  br label %97

97:                                               ; preds = %96, %63
  call void @_ZN5QListIP11_rtp_packetED2Ev(ptr noundef nonnull align 8 dereferenceable(24) %15) #20
  call void @_ZN7QObjectD2Ev(ptr noundef nonnull align 8 dereferenceable(16) %12) #20
  br label %98

98:                                               ; preds = %97
  %99 = load ptr, ptr %9, align 8
  %100 = load i32, ptr %10, align 4
  %101 = insertvalue { ptr, i32 } poison, ptr %99, 0
  %102 = insertvalue { ptr, i32 } %101, i32 %100, 1
  resume { ptr, i32 } %102

103:                                              ; preds = %90
  %104 = landingpad { ptr, i32 }
          catch ptr null
  %105 = extractvalue { ptr, i32 } %104, 0
  call void @__clang_call_terminate(ptr %105) #24
  unreachable

106:                                              ; preds = %88
  unreachable
}