; Function Attrs: mustprogress uwtable
define void @_ZN14RtpAudioStreamC2EP7QObjectP13_rtpstream_idb(ptr noundef nonnull align 8 dereferenceable(7680) %0, ptr noundef %1, ptr noundef %2, i1 noundef zeroext %3) unnamed_addr #0 align 2 personality ptr @__gxx_personality_v0 {
  tail call void @_ZN7QObjectC2EPS_(ptr noundef nonnull align 8 dereferenceable(16) %0, ptr noundef %1)
  store ptr getelementptr inbounds ({ [14 x ptr] }, ptr @_ZTV14RtpAudioStream, i64 0, i32 0, i64 2), ptr %0, align 8
  %5 = getelementptr inbounds i8, ptr %0, i64 7384
  store i8 1, ptr %5, align 8
  %6 = getelementptr inbounds i8, ptr %0, i64 7392
  tail call void @llvm.memset.p0.i64(ptr noundef nonnull align 8 dereferenceable(24) %6, i8 0, i64 24, i1 false)
  %7 = invoke ptr @rtp_decoder_hash_table_new()
          to label %8 unwind label %41

8:                                                ; preds = %4
  %9 = getelementptr inbounds i8, ptr %0, i64 7432
  %10 = zext i1 %3 to i8
  store ptr %7, ptr %9, align 8
  %11 = getelementptr inbounds i8, ptr %0, i64 7440
  %12 = getelementptr inbounds i8, ptr %0, i64 7488
  tail call void @llvm.memset.p0.i64(ptr noundef nonnull align 8 dereferenceable(32) %11, i8 0, i64 32, i1 false)
  store i8 %10, ptr %12, align 8
  %13 = getelementptr inbounds i8, ptr %0, i64 7492
  %14 = getelementptr inbounds i8, ptr %0, i64 7504
  %15 = getelementptr inbounds i8, ptr %0, i64 7520
  %16 = getelementptr inbounds i8, ptr %0, i64 7528
  %17 = getelementptr inbounds i8, ptr %0, i64 7552
  %18 = getelementptr inbounds i8, ptr %0, i64 7576
  %19 = getelementptr inbounds i8, ptr %0, i64 7600
  %20 = getelementptr inbounds i8, ptr %0, i64 7624
  %21 = getelementptr inbounds i8, ptr %0, i64 7648
  tail call void @llvm.memset.p0.i64(ptr noundef nonnull align 4 dereferenceable(20) %13, i8 0, i64 20, i1 false)
  tail call void @llvm.memset.p0.i64(ptr noundef nonnull align 8 dereferenceable(128) %15, i8 0, i64 128, i1 false)
  store i16 1, ptr %21, align 8
  %22 = getelementptr inbounds i8, ptr %0, i64 7650
  store i16 1, ptr %22, align 2
  %23 = getelementptr inbounds i8, ptr %0, i64 7652
  store i32 0, ptr %23, align 4
  %24 = getelementptr inbounds i8, ptr %0, i64 7656
  store i32 50, ptr %24, align 8
  %25 = getelementptr inbounds i8, ptr %0, i64 7660
  %26 = getelementptr inbounds i8, ptr %0, i64 16
  tail call void @llvm.memset.p0.i64(ptr noundef nonnull align 4 dereferenceable(20) %25, i8 0, i64 20, i1 false)
  invoke void @rtpstream_id_copy(ptr noundef %2, ptr noundef nonnull %26)
          to label %27 unwind label %43

27:                                               ; preds = %8
  %28 = getelementptr inbounds i8, ptr %0, i64 80
  tail call void @llvm.memset.p0.i64(ptr noundef nonnull align 8 dereferenceable(7304) %28, i8 0, i64 7304, i1 false)
  invoke void @rtpstream_id_copy(ptr noundef nonnull %26, ptr noundef nonnull %28)
          to label %29 unwind label %43

29:                                               ; preds = %27
  %30 = invoke ptr @speex_resampler_init(i32 noundef 1, i32 noundef 1000, i32 noundef 1000, i32 noundef 0, ptr noundef null)
          to label %31 unwind label %43

31:                                               ; preds = %29
  %32 = getelementptr inbounds i8, ptr %0, i64 7512
  store ptr %30, ptr %32, align 8
  %33 = invoke noalias noundef nonnull dereferenceable(96) ptr @_Znwm(i64 noundef 96) #23
          to label %34 unwind label %45

34:                                               ; preds = %31
  %35 = load i32, ptr getelementptr inbounds (%struct._e_prefs, ptr @prefs, i64 0, i32 102), align 8
  %36 = icmp ne i32 %35, 0
  %37 = load i32, ptr getelementptr inbounds (%struct._e_prefs, ptr @prefs, i64 0, i32 103), align 4
  %38 = icmp ne i32 %37, 0
  invoke void @_ZN12RtpAudioFileC1Ebb(ptr noundef nonnull align 8 dereferenceable(96) %33, i1 noundef zeroext %36, i1 noundef zeroext %38)
          to label %39 unwind label %47

39:                                               ; preds = %34
  %40 = getelementptr inbounds i8, ptr %0, i64 7416
  store ptr %33, ptr %40, align 8
  ret void

41:                                               ; preds = %4
  %42 = landingpad { ptr, i32 }
          cleanup
  br label %59

43:                                               ; preds = %29, %27, %8
  %44 = landingpad { ptr, i32 }
          cleanup
  br label %58

45:                                               ; preds = %31
  %46 = landingpad { ptr, i32 }
          catch ptr null
  br label %49

47:                                               ; preds = %34
  %48 = landingpad { ptr, i32 }
          catch ptr null
  tail call void @_ZdlPv(ptr noundef nonnull %33) #24
  br label %49

49:                                               ; preds = %47, %45
  %.pn = phi { ptr, i32 } [ %48, %47 ], [ %46, %45 ]
  %.06 = extractvalue { ptr, i32 } %.pn, 0
  %50 = tail call ptr @__cxa_begin_catch(ptr %.06) #25
  %51 = load ptr, ptr %32, align 8
  invoke void @speex_resampler_destroy(ptr noundef %51)
          to label %52 unwind label %56

52:                                               ; preds = %49
  invoke void @rtpstream_info_free_data(ptr noundef nonnull %28)
          to label %53 unwind label %56

53:                                               ; preds = %52
  invoke void @rtpstream_id_free(ptr noundef nonnull %26)
          to label %54 unwind label %56

54:                                               ; preds = %53
  %55 = tail call ptr @__cxa_allocate_exception(i64 4) #25
  store i32 -1, ptr %55, align 16
  invoke void @__cxa_throw(ptr nonnull %55, ptr nonnull @_ZTIi, ptr null) #26
          to label %63 unwind label %56

56:                                               ; preds = %54, %53, %52, %49
  %57 = landingpad { ptr, i32 }
          cleanup
  invoke void @__cxa_end_catch()
          to label %58 unwind label %60

58:                                               ; preds = %56, %43
  %.pn8 = phi { ptr, i32 } [ %57, %56 ], [ %44, %43 ]
  tail call void @_ZN5QListIdED2Ev(ptr noundef nonnull align 8 dereferenceable(24) %20) #25
  tail call void @_ZN5QListIdED2Ev(ptr noundef nonnull align 8 dereferenceable(24) %19) #25
  tail call void @_ZN5QListIdED2Ev(ptr noundef nonnull align 8 dereferenceable(24) %18) #25
  tail call void @_ZN5QListIdED2Ev(ptr noundef nonnull align 8 dereferenceable(24) %17) #25
  tail call void @_ZN5QListIsED2Ev(ptr noundef nonnull align 8 dereferenceable(24) %16) #25
  tail call void @_ZN4QMapIdjED2Ev(ptr noundef nonnull align 8 dereferenceable(8) %15) #25
  tail call void @_ZN5QHashI7QString15QHashDummyValueED2Ev(ptr noundef nonnull align 8 dereferenceable(8) %14) #25
  br label %59

59:                                               ; preds = %58, %41
  %.pn8.pn = phi { ptr, i32 } [ %.pn8, %58 ], [ %42, %41 ]
  tail call void @_ZN5QListIP11_rtp_packetED2Ev(ptr noundef nonnull align 8 dereferenceable(24) %6) #25
  tail call void @_ZN7QObjectD2Ev(ptr noundef nonnull align 8 dereferenceable(16) %0) #25
  resume { ptr, i32 } %.pn8.pn

60:                                               ; preds = %56
  %61 = landingpad { ptr, i32 }
          catch ptr null
  %62 = extractvalue { ptr, i32 } %61, 0
  tail call void @__clang_call_terminate(ptr %62) #27
  unreachable

63:                                               ; preds = %54
  unreachable
}